; Function Attrs: mustprogress nofree norecurse nosync nounwind willreturn memory(argmem: readwrite) uwtable
define hidden void @_ZN5boost9container3pmr13pool_resource16priv_fix_optionsEv(ptr nocapture noundef nonnull align 8 dereferenceable(56) %0) local_unnamed_addr #0 align 2 {
_ZN5boost9container3pmr13pool_resource17priv_limit_optionERmmm.exit:
  %1 = load i64, ptr %0, align 8, !tbaa !3
  %.not.i = icmp eq i64 %1, 0
  %.sroa.speculated.i = tail call i64 @llvm.umin.i64(i64 %1, i64 32)
  %storemerge.i = select i1 %.not.i, i64 32, i64 %.sroa.speculated.i
  store i64 %storemerge.i, ptr %0, align 8, !tbaa !3
  %2 = getelementptr inbounds nuw i8, ptr %0, i64 8
  %3 = load i64, ptr %2, align 8, !tbaa !3
  %.not.i1 = icmp eq i64 %3, 0
  br i1 %.not.i1, label %_ZN5boost9container3pmr13pool_resource17priv_limit_optionERmmm.exit4, label %4

4:                                                ; preds = %_ZN5boost9container3pmr13pool_resource17priv_limit_optionERmmm.exit
  %5 = icmp ult i64 %3, 16
  br i1 %5, label %_ZN5boost9container3pmr13pool_resource17priv_limit_optionERmmm.exit4, label %6

6:                                                ; preds = %4
  %.sroa.speculated.i2 = tail call i64 @llvm.umin.i64(i64 %3, i64 4096)
  %7 = add nsw i64 %.sroa.speculated.i2, -1
  br label %_ZN5boost9container3pmr13pool_resource17priv_limit_optionERmmm.exit4

_ZN5boost9container3pmr13pool_resource17priv_limit_optionERmmm.exit4: ; preds = %_ZN5boost9container3pmr13pool_resource17priv_limit_optionERmmm.exit, %4, %6
  %storemerge.i3 = phi i64 [ 4095, %_ZN5boost9container3pmr13pool_resource17priv_limit_optionERmmm.exit ], [ %7, %6 ], [ 15, %4 ]
  %8 = tail call range(i64 0, 65) i64 @llvm.ctlz.i64(i64 %storemerge.i3, i1 false)
  %9 = sub nuw nsw i64 64, %8
  %10 = shl nuw nsw i64 1, %9
  store i64 %10, ptr %2, align 8, !tbaa !7
  ret void
}